#include <math.h>
#include <stdio.h>
#include <stdlib.h>
#include <string.h>


char s[1000];
int main(){
	//freopen("i.txt","r",stdin);
	int T,i;
	scanf("%d",&T);
	while (T--){
		scanf("%s",s);
		for (i=0;s[i];i++){
			if (s[i]=='A'){
				putchar('T');
			}
			if (s[i]=='T'){
				putchar('A');
			}
			if (s[i]=='G'){
				putchar('C');
			}
			if (s[i]=='C'){
				putchar('G');
			}
		}
		puts("");
	}
}